
rv64ui-p-add:     file format elf64-littleriscv


Disassembly of section .text.init:

0000000080000000 <_start>:
    80000000:	0080006f          	j	80000008 <reset_vector>

0000000080000004 <trap_vector>:
    80000004:	00000013          	nop

0000000080000008 <reset_vector>:
    80000008:	00000093          	li	ra,0
    8000000c:	00000113          	li	sp,0
    80000010:	00000193          	li	gp,0
    80000014:	00000213          	li	tp,0
    80000018:	00000293          	li	t0,0
    8000001c:	00000313          	li	t1,0
    80000020:	00000393          	li	t2,0
    80000024:	00000413          	li	s0,0
    80000028:	00000493          	li	s1,0
    8000002c:	00000513          	li	a0,0
    80000030:	00000593          	li	a1,0
    80000034:	00000613          	li	a2,0
    80000038:	00000693          	li	a3,0
    8000003c:	00000713          	li	a4,0
    80000040:	00000793          	li	a5,0
    80000044:	00000813          	li	a6,0
    80000048:	00000893          	li	a7,0
    8000004c:	00000913          	li	s2,0
    80000050:	00000993          	li	s3,0
    80000054:	00000a13          	li	s4,0
    80000058:	00000a93          	li	s5,0
    8000005c:	00000b13          	li	s6,0
    80000060:	00000b93          	li	s7,0
    80000064:	00000c13          	li	s8,0
    80000068:	00000c93          	li	s9,0
    8000006c:	00000d13          	li	s10,0
    80000070:	00000d93          	li	s11,0
    80000074:	00000e13          	li	t3,0
    80000078:	00000e93          	li	t4,0
    8000007c:	00000f13          	li	t5,0
    80000080:	00000f93          	li	t6,0
    80000084:	00000513          	li	a0,0
    80000088:	00051063          	bnez	a0,80000088 <reset_vector+0x80>
    8000008c:	00000193          	li	gp,0
    80000090:	00000297          	auipc	t0,0x0
    80000094:	00c28293          	addi	t0,t0,12 # 8000009c <test_2>
    80000098:	0040006f          	j	8000009c <test_2>

000000008000009c <test_2>:
    8000009c:	00200193          	li	gp,2
    800000a0:	00000593          	li	a1,0
    800000a4:	00000613          	li	a2,0
    800000a8:	00c58733          	add	a4,a1,a2
    800000ac:	00000393          	li	t2,0
    800000b0:	4e771063          	bne	a4,t2,80000590 <fail>

00000000800000b4 <test_3>:
    800000b4:	00300193          	li	gp,3
    800000b8:	00100593          	li	a1,1
    800000bc:	00100613          	li	a2,1
    800000c0:	00c58733          	add	a4,a1,a2
    800000c4:	00200393          	li	t2,2
    800000c8:	4c771463          	bne	a4,t2,80000590 <fail>

00000000800000cc <test_4>:
    800000cc:	00400193          	li	gp,4
    800000d0:	00300593          	li	a1,3
    800000d4:	00700613          	li	a2,7
    800000d8:	00c58733          	add	a4,a1,a2
    800000dc:	00a00393          	li	t2,10
    800000e0:	4a771863          	bne	a4,t2,80000590 <fail>

00000000800000e4 <test_5>:
    800000e4:	00500193          	li	gp,5
    800000e8:	00000593          	li	a1,0
    800000ec:	ffff8637          	lui	a2,0xffff8
    800000f0:	00c58733          	add	a4,a1,a2
    800000f4:	ffff83b7          	lui	t2,0xffff8
    800000f8:	48771c63          	bne	a4,t2,80000590 <fail>

00000000800000fc <test_6>:
    800000fc:	00600193          	li	gp,6
    80000100:	800005b7          	lui	a1,0x80000
    80000104:	00000613          	li	a2,0
    80000108:	00c58733          	add	a4,a1,a2
    8000010c:	800003b7          	lui	t2,0x80000
    80000110:	48771063          	bne	a4,t2,80000590 <fail>

0000000080000114 <test_7>:
    80000114:	00700193          	li	gp,7
    80000118:	800005b7          	lui	a1,0x80000
    8000011c:	ffff8637          	lui	a2,0xffff8
    80000120:	00c58733          	add	a4,a1,a2
    80000124:	ffff03b7          	lui	t2,0xffff0
    80000128:	fff3839b          	addiw	t2,t2,-1 # fffffffffffeffff <_end+0xffffffff7ffedfff>
    8000012c:	00f39393          	slli	t2,t2,0xf
    80000130:	46771063          	bne	a4,t2,80000590 <fail>

0000000080000134 <test_8>:
    80000134:	00800193          	li	gp,8
    80000138:	00000593          	li	a1,0
    8000013c:	00008637          	lui	a2,0x8
    80000140:	fff6061b          	addiw	a2,a2,-1 # 7fff <_start-0x7fff8001>
    80000144:	00c58733          	add	a4,a1,a2
    80000148:	000083b7          	lui	t2,0x8
    8000014c:	fff3839b          	addiw	t2,t2,-1 # 7fff <_start-0x7fff8001>
    80000150:	44771063          	bne	a4,t2,80000590 <fail>

0000000080000154 <test_9>:
    80000154:	00900193          	li	gp,9
    80000158:	800005b7          	lui	a1,0x80000
    8000015c:	fff5859b          	addiw	a1,a1,-1 # 7fffffff <_start-0x1>
    80000160:	00000613          	li	a2,0
    80000164:	00c58733          	add	a4,a1,a2
    80000168:	800003b7          	lui	t2,0x80000
    8000016c:	fff3839b          	addiw	t2,t2,-1 # 7fffffff <_start-0x1>
    80000170:	42771063          	bne	a4,t2,80000590 <fail>

0000000080000174 <test_10>:
    80000174:	00a00193          	li	gp,10
    80000178:	800005b7          	lui	a1,0x80000
    8000017c:	fff5859b          	addiw	a1,a1,-1 # 7fffffff <_start-0x1>
    80000180:	00008637          	lui	a2,0x8
    80000184:	fff6061b          	addiw	a2,a2,-1 # 7fff <_start-0x7fff8001>
    80000188:	00c58733          	add	a4,a1,a2
    8000018c:	000103b7          	lui	t2,0x10
    80000190:	0013839b          	addiw	t2,t2,1 # 10001 <_start-0x7ffeffff>
    80000194:	00f39393          	slli	t2,t2,0xf
    80000198:	ffe38393          	addi	t2,t2,-2
    8000019c:	3e771a63          	bne	a4,t2,80000590 <fail>

00000000800001a0 <test_11>:
    800001a0:	00b00193          	li	gp,11
    800001a4:	800005b7          	lui	a1,0x80000
    800001a8:	00008637          	lui	a2,0x8
    800001ac:	fff6061b          	addiw	a2,a2,-1 # 7fff <_start-0x7fff8001>
    800001b0:	00c58733          	add	a4,a1,a2
    800001b4:	800083b7          	lui	t2,0x80008
    800001b8:	fff3839b          	addiw	t2,t2,-1 # ffffffff80007fff <_end+0xffffffff00005fff>
    800001bc:	3c771a63          	bne	a4,t2,80000590 <fail>

00000000800001c0 <test_12>:
    800001c0:	00c00193          	li	gp,12
    800001c4:	800005b7          	lui	a1,0x80000
    800001c8:	fff5859b          	addiw	a1,a1,-1 # 7fffffff <_start-0x1>
    800001cc:	ffff8637          	lui	a2,0xffff8
    800001d0:	00c58733          	add	a4,a1,a2
    800001d4:	7fff83b7          	lui	t2,0x7fff8
    800001d8:	fff3839b          	addiw	t2,t2,-1 # 7fff7fff <_start-0x8001>
    800001dc:	3a771a63          	bne	a4,t2,80000590 <fail>

00000000800001e0 <test_13>:
    800001e0:	00d00193          	li	gp,13
    800001e4:	00000593          	li	a1,0
    800001e8:	fff00613          	li	a2,-1
    800001ec:	00c58733          	add	a4,a1,a2
    800001f0:	fff00393          	li	t2,-1
    800001f4:	38771e63          	bne	a4,t2,80000590 <fail>

00000000800001f8 <test_14>:
    800001f8:	00e00193          	li	gp,14
    800001fc:	fff00593          	li	a1,-1
    80000200:	00100613          	li	a2,1
    80000204:	00c58733          	add	a4,a1,a2
    80000208:	00000393          	li	t2,0
    8000020c:	38771263          	bne	a4,t2,80000590 <fail>

0000000080000210 <test_15>:
    80000210:	00f00193          	li	gp,15
    80000214:	fff00593          	li	a1,-1
    80000218:	fff00613          	li	a2,-1
    8000021c:	00c58733          	add	a4,a1,a2
    80000220:	ffe00393          	li	t2,-2
    80000224:	36771663          	bne	a4,t2,80000590 <fail>

0000000080000228 <test_16>:
    80000228:	01000193          	li	gp,16
    8000022c:	00100593          	li	a1,1
    80000230:	80000637          	lui	a2,0x80000
    80000234:	fff6061b          	addiw	a2,a2,-1 # 7fffffff <_start-0x1>
    80000238:	00c58733          	add	a4,a1,a2
    8000023c:	0010039b          	addiw	t2,zero,1
    80000240:	01f39393          	slli	t2,t2,0x1f
    80000244:	34771663          	bne	a4,t2,80000590 <fail>

0000000080000248 <test_17>:
    80000248:	01100193          	li	gp,17
    8000024c:	00d00593          	li	a1,13
    80000250:	00b00613          	li	a2,11
    80000254:	00c585b3          	add	a1,a1,a2
    80000258:	01800393          	li	t2,24
    8000025c:	32759a63          	bne	a1,t2,80000590 <fail>

0000000080000260 <test_18>:
    80000260:	01200193          	li	gp,18
    80000264:	00e00593          	li	a1,14
    80000268:	00b00613          	li	a2,11
    8000026c:	00c58633          	add	a2,a1,a2
    80000270:	01900393          	li	t2,25
    80000274:	30761e63          	bne	a2,t2,80000590 <fail>

0000000080000278 <test_19>:
    80000278:	01300193          	li	gp,19
    8000027c:	00d00593          	li	a1,13
    80000280:	00b585b3          	add	a1,a1,a1
    80000284:	01a00393          	li	t2,26
    80000288:	30759463          	bne	a1,t2,80000590 <fail>

000000008000028c <test_20>:
    8000028c:	01400193          	li	gp,20
    80000290:	00000213          	li	tp,0
    80000294:	00d00093          	li	ra,13
    80000298:	00b00113          	li	sp,11
    8000029c:	00208733          	add	a4,ra,sp
    800002a0:	00070313          	mv	t1,a4
    800002a4:	00120213          	addi	tp,tp,1 # 1 <_start-0x7fffffff>
    800002a8:	00200293          	li	t0,2
    800002ac:	fe5214e3          	bne	tp,t0,80000294 <test_20+0x8>
    800002b0:	01800393          	li	t2,24
    800002b4:	2c731e63          	bne	t1,t2,80000590 <fail>

00000000800002b8 <test_21>:
    800002b8:	01500193          	li	gp,21
    800002bc:	00000213          	li	tp,0
    800002c0:	00e00093          	li	ra,14
    800002c4:	00b00113          	li	sp,11
    800002c8:	00208733          	add	a4,ra,sp
    800002cc:	00000013          	nop
    800002d0:	00070313          	mv	t1,a4
    800002d4:	00120213          	addi	tp,tp,1 # 1 <_start-0x7fffffff>
    800002d8:	00200293          	li	t0,2
    800002dc:	fe5212e3          	bne	tp,t0,800002c0 <test_21+0x8>
    800002e0:	01900393          	li	t2,25
    800002e4:	2a731663          	bne	t1,t2,80000590 <fail>

00000000800002e8 <test_22>:
    800002e8:	01600193          	li	gp,22
    800002ec:	00000213          	li	tp,0
    800002f0:	00f00093          	li	ra,15
    800002f4:	00b00113          	li	sp,11
    800002f8:	00208733          	add	a4,ra,sp
    800002fc:	00000013          	nop
    80000300:	00000013          	nop
    80000304:	00070313          	mv	t1,a4
    80000308:	00120213          	addi	tp,tp,1 # 1 <_start-0x7fffffff>
    8000030c:	00200293          	li	t0,2
    80000310:	fe5210e3          	bne	tp,t0,800002f0 <test_22+0x8>
    80000314:	01a00393          	li	t2,26
    80000318:	26731c63          	bne	t1,t2,80000590 <fail>

000000008000031c <test_23>:
    8000031c:	01700193          	li	gp,23
    80000320:	00000213          	li	tp,0
    80000324:	00d00093          	li	ra,13
    80000328:	00b00113          	li	sp,11
    8000032c:	00208733          	add	a4,ra,sp
    80000330:	00120213          	addi	tp,tp,1 # 1 <_start-0x7fffffff>
    80000334:	00200293          	li	t0,2
    80000338:	fe5216e3          	bne	tp,t0,80000324 <test_23+0x8>
    8000033c:	01800393          	li	t2,24
    80000340:	24771863          	bne	a4,t2,80000590 <fail>

0000000080000344 <test_24>:
    80000344:	01800193          	li	gp,24
    80000348:	00000213          	li	tp,0
    8000034c:	00e00093          	li	ra,14
    80000350:	00b00113          	li	sp,11
    80000354:	00000013          	nop
    80000358:	00208733          	add	a4,ra,sp
    8000035c:	00120213          	addi	tp,tp,1 # 1 <_start-0x7fffffff>
    80000360:	00200293          	li	t0,2
    80000364:	fe5214e3          	bne	tp,t0,8000034c <test_24+0x8>
    80000368:	01900393          	li	t2,25
    8000036c:	22771263          	bne	a4,t2,80000590 <fail>

0000000080000370 <test_25>:
    80000370:	01900193          	li	gp,25
    80000374:	00000213          	li	tp,0
    80000378:	00f00093          	li	ra,15
    8000037c:	00b00113          	li	sp,11
    80000380:	00000013          	nop
    80000384:	00000013          	nop
    80000388:	00208733          	add	a4,ra,sp
    8000038c:	00120213          	addi	tp,tp,1 # 1 <_start-0x7fffffff>
    80000390:	00200293          	li	t0,2
    80000394:	fe5212e3          	bne	tp,t0,80000378 <test_25+0x8>
    80000398:	01a00393          	li	t2,26
    8000039c:	1e771a63          	bne	a4,t2,80000590 <fail>

00000000800003a0 <test_26>:
    800003a0:	01a00193          	li	gp,26
    800003a4:	00000213          	li	tp,0
    800003a8:	00d00093          	li	ra,13
    800003ac:	00000013          	nop
    800003b0:	00b00113          	li	sp,11
    800003b4:	00208733          	add	a4,ra,sp
    800003b8:	00120213          	addi	tp,tp,1 # 1 <_start-0x7fffffff>
    800003bc:	00200293          	li	t0,2
    800003c0:	fe5214e3          	bne	tp,t0,800003a8 <test_26+0x8>
    800003c4:	01800393          	li	t2,24
    800003c8:	1c771463          	bne	a4,t2,80000590 <fail>

00000000800003cc <test_27>:
    800003cc:	01b00193          	li	gp,27
    800003d0:	00000213          	li	tp,0
    800003d4:	00e00093          	li	ra,14
    800003d8:	00000013          	nop
    800003dc:	00b00113          	li	sp,11
    800003e0:	00000013          	nop
    800003e4:	00208733          	add	a4,ra,sp
    800003e8:	00120213          	addi	tp,tp,1 # 1 <_start-0x7fffffff>
    800003ec:	00200293          	li	t0,2
    800003f0:	fe5212e3          	bne	tp,t0,800003d4 <test_27+0x8>
    800003f4:	01900393          	li	t2,25
    800003f8:	18771c63          	bne	a4,t2,80000590 <fail>

00000000800003fc <test_28>:
    800003fc:	01c00193          	li	gp,28
    80000400:	00000213          	li	tp,0
    80000404:	00f00093          	li	ra,15
    80000408:	00000013          	nop
    8000040c:	00000013          	nop
    80000410:	00b00113          	li	sp,11
    80000414:	00208733          	add	a4,ra,sp
    80000418:	00120213          	addi	tp,tp,1 # 1 <_start-0x7fffffff>
    8000041c:	00200293          	li	t0,2
    80000420:	fe5212e3          	bne	tp,t0,80000404 <test_28+0x8>
    80000424:	01a00393          	li	t2,26
    80000428:	16771463          	bne	a4,t2,80000590 <fail>

000000008000042c <test_29>:
    8000042c:	01d00193          	li	gp,29
    80000430:	00000213          	li	tp,0
    80000434:	00b00113          	li	sp,11
    80000438:	00d00093          	li	ra,13
    8000043c:	00208733          	add	a4,ra,sp
    80000440:	00120213          	addi	tp,tp,1 # 1 <_start-0x7fffffff>
    80000444:	00200293          	li	t0,2
    80000448:	fe5216e3          	bne	tp,t0,80000434 <test_29+0x8>
    8000044c:	01800393          	li	t2,24
    80000450:	14771063          	bne	a4,t2,80000590 <fail>

0000000080000454 <test_30>:
    80000454:	01e00193          	li	gp,30
    80000458:	00000213          	li	tp,0
    8000045c:	00b00113          	li	sp,11
    80000460:	00e00093          	li	ra,14
    80000464:	00000013          	nop
    80000468:	00208733          	add	a4,ra,sp
    8000046c:	00120213          	addi	tp,tp,1 # 1 <_start-0x7fffffff>
    80000470:	00200293          	li	t0,2
    80000474:	fe5214e3          	bne	tp,t0,8000045c <test_30+0x8>
    80000478:	01900393          	li	t2,25
    8000047c:	10771a63          	bne	a4,t2,80000590 <fail>

0000000080000480 <test_31>:
    80000480:	01f00193          	li	gp,31
    80000484:	00000213          	li	tp,0
    80000488:	00b00113          	li	sp,11
    8000048c:	00f00093          	li	ra,15
    80000490:	00000013          	nop
    80000494:	00000013          	nop
    80000498:	00208733          	add	a4,ra,sp
    8000049c:	00120213          	addi	tp,tp,1 # 1 <_start-0x7fffffff>
    800004a0:	00200293          	li	t0,2
    800004a4:	fe5212e3          	bne	tp,t0,80000488 <test_31+0x8>
    800004a8:	01a00393          	li	t2,26
    800004ac:	0e771263          	bne	a4,t2,80000590 <fail>

00000000800004b0 <test_32>:
    800004b0:	02000193          	li	gp,32
    800004b4:	00000213          	li	tp,0
    800004b8:	00b00113          	li	sp,11
    800004bc:	00000013          	nop
    800004c0:	00d00093          	li	ra,13
    800004c4:	00208733          	add	a4,ra,sp
    800004c8:	00120213          	addi	tp,tp,1 # 1 <_start-0x7fffffff>
    800004cc:	00200293          	li	t0,2
    800004d0:	fe5214e3          	bne	tp,t0,800004b8 <test_32+0x8>
    800004d4:	01800393          	li	t2,24
    800004d8:	0a771c63          	bne	a4,t2,80000590 <fail>

00000000800004dc <test_33>:
    800004dc:	02100193          	li	gp,33
    800004e0:	00000213          	li	tp,0
    800004e4:	00b00113          	li	sp,11
    800004e8:	00000013          	nop
    800004ec:	00e00093          	li	ra,14
    800004f0:	00000013          	nop
    800004f4:	00208733          	add	a4,ra,sp
    800004f8:	00120213          	addi	tp,tp,1 # 1 <_start-0x7fffffff>
    800004fc:	00200293          	li	t0,2
    80000500:	fe5212e3          	bne	tp,t0,800004e4 <test_33+0x8>
    80000504:	01900393          	li	t2,25
    80000508:	08771463          	bne	a4,t2,80000590 <fail>

000000008000050c <test_34>:
    8000050c:	02200193          	li	gp,34
    80000510:	00000213          	li	tp,0
    80000514:	00b00113          	li	sp,11
    80000518:	00000013          	nop
    8000051c:	00000013          	nop
    80000520:	00f00093          	li	ra,15
    80000524:	00208733          	add	a4,ra,sp
    80000528:	00120213          	addi	tp,tp,1 # 1 <_start-0x7fffffff>
    8000052c:	00200293          	li	t0,2
    80000530:	fe5212e3          	bne	tp,t0,80000514 <test_34+0x8>
    80000534:	01a00393          	li	t2,26
    80000538:	04771c63          	bne	a4,t2,80000590 <fail>

000000008000053c <test_35>:
    8000053c:	02300193          	li	gp,35
    80000540:	00f00093          	li	ra,15
    80000544:	00100133          	add	sp,zero,ra
    80000548:	00f00393          	li	t2,15
    8000054c:	04711263          	bne	sp,t2,80000590 <fail>

0000000080000550 <test_36>:
    80000550:	02400193          	li	gp,36
    80000554:	02000093          	li	ra,32
    80000558:	00008133          	add	sp,ra,zero
    8000055c:	02000393          	li	t2,32
    80000560:	02711863          	bne	sp,t2,80000590 <fail>

0000000080000564 <test_37>:
    80000564:	02500193          	li	gp,37
    80000568:	000000b3          	add	ra,zero,zero
    8000056c:	00000393          	li	t2,0
    80000570:	02709063          	bne	ra,t2,80000590 <fail>

0000000080000574 <test_38>:
    80000574:	02600193          	li	gp,38
    80000578:	01000093          	li	ra,16
    8000057c:	01e00113          	li	sp,30
    80000580:	00208033          	add	zero,ra,sp
    80000584:	00000393          	li	t2,0
    80000588:	00701463          	bne	zero,t2,80000590 <fail>
    8000058c:	00301e63          	bne	zero,gp,800005a8 <pass>

0000000080000590 <fail>:
    80000590:	00018063          	beqz	gp,80000590 <fail>
    80000594:	00119193          	slli	gp,gp,0x1
    80000598:	0011e193          	ori	gp,gp,1
    8000059c:	05d00893          	li	a7,93
    800005a0:	00018513          	mv	a0,gp
    800005a4:	00000073          	ecall

00000000800005a8 <pass>:
    800005a8:	00100193          	li	gp,1
    800005ac:	05d00893          	li	a7,93
    800005b0:	00000513          	li	a0,0
    800005b4:	00000073          	ecall
    800005b8:	c0001073          	unimp
	...

Disassembly of section .tohost:

0000000080001000 <tohost>:
	...

0000000080001040 <fromhost>:
	...
